target datalayout = "e-m:e-p270:32:32-p271:32:32-p272:64:64-i64:64-i128:128-f80:128-n8:16:32:64-S128"
target triple = "x86_64-pc-linux-gnu"

@.str.3 = private unnamed_addr constant [129 x i8] c"generated/home/dtcxzyw/WorkSpace/Projects/compilers/llvm-opt-benchmark/bench/abseil-cpp/abseil-cpp/absl/base/raw_logging_test.cc\00", align 1
@.str.19 = private unnamed_addr constant [13 x i8] c"RAW INFO: %d\00", align 1
@.str.20 = private unnamed_addr constant [16 x i8] c"RAW INFO: %d %d\00", align 1
@.str.21 = private unnamed_addr constant [19 x i8] c"RAW INFO: %d %d %d\00", align 1
@.str.22 = private unnamed_addr constant [22 x i8] c"RAW INFO: %d %d %d %d\00", align 1
@.str.23 = private unnamed_addr constant [25 x i8] c"RAW INFO: %d %d %d %d %d\00", align 1
@.str.24 = private unnamed_addr constant [16 x i8] c"RAW WARNING: %d\00", align 1
@.str.25 = private unnamed_addr constant [14 x i8] c"RAW ERROR: %d\00", align 1

; Function Attrs: mustprogress uwtable
define internal void @_ZN12_GLOBAL__N_134RawLoggingCompilationTest_Log_Test8TestBodyEv(ptr noundef nonnull align 8 dereferenceable(16) %0) unnamed_addr #6 align 2 {
  %2 = alloca ptr, align 8
  %3 = alloca ptr, align 8
  %4 = alloca ptr, align 8
  %5 = alloca ptr, align 8
  %6 = alloca ptr, align 8
  %7 = alloca ptr, align 8
  %8 = alloca ptr, align 8
  %9 = alloca ptr, align 8
  store ptr %0, ptr %2, align 8, !tbaa !54
  br label %10

10:                                               ; preds = %1
  call void @llvm.lifetime.start.p0(i64 8, ptr %3) #3
  store ptr getelementptr (i8, ptr @.str.3, i64 109), ptr %3, align 8, !tbaa !13
  call void (i32, ptr, i32, ptr, ...) @_ZN4absl16raw_log_internal6RawLogENS_11LogSeverityEPKciS3_z(i32 noundef 0, ptr noundef getelementptr (i8, ptr @.str.3, i64 109), i32 noundef 29, ptr noundef @.str.19, i32 noundef 1)
  call void @llvm.lifetime.end.p0(i64 8, ptr %3) #3
  br label %11

11:                                               ; preds = %10
  br label %12

12:                                               ; preds = %11
  call void @llvm.lifetime.start.p0(i64 8, ptr %4) #3
  store ptr getelementptr (i8, ptr @.str.3, i64 109), ptr %4, align 8, !tbaa !13
  call void (i32, ptr, i32, ptr, ...) @_ZN4absl16raw_log_internal6RawLogENS_11LogSeverityEPKciS3_z(i32 noundef 0, ptr noundef getelementptr (i8, ptr @.str.3, i64 109), i32 noundef 30, ptr noundef @.str.20, i32 noundef 1, i32 noundef 2)
  call void @llvm.lifetime.end.p0(i64 8, ptr %4) #3
  br label %13

13:                                               ; preds = %12
  br label %14

14:                                               ; preds = %13
  call void @llvm.lifetime.start.p0(i64 8, ptr %5) #3
  store ptr getelementptr (i8, ptr @.str.3, i64 109), ptr %5, align 8, !tbaa !13
  call void (i32, ptr, i32, ptr, ...) @_ZN4absl16raw_log_internal6RawLogENS_11LogSeverityEPKciS3_z(i32 noundef 0, ptr noundef getelementptr (i8, ptr @.str.3, i64 109), i32 noundef 31, ptr noundef @.str.21, i32 noundef 1, i32 noundef 2, i32 noundef 3)
  call void @llvm.lifetime.end.p0(i64 8, ptr %5) #3
  br label %15

15:                                               ; preds = %14
  br label %16

16:                                               ; preds = %15
  call void @llvm.lifetime.start.p0(i64 8, ptr %6) #3
  store ptr getelementptr (i8, ptr @.str.3, i64 109), ptr %6, align 8, !tbaa !13
  call void (i32, ptr, i32, ptr, ...) @_ZN4absl16raw_log_internal6RawLogENS_11LogSeverityEPKciS3_z(i32 noundef 0, ptr noundef getelementptr (i8, ptr @.str.3, i64 109), i32 noundef 32, ptr noundef @.str.22, i32 noundef 1, i32 noundef 2, i32 noundef 3, i32 noundef 4)
  call void @llvm.lifetime.end.p0(i64 8, ptr %6) #3
  br label %17

17:                                               ; preds = %16
  br label %18

18:                                               ; preds = %17
  call void @llvm.lifetime.start.p0(i64 8, ptr %7) #3
  store ptr getelementptr (i8, ptr @.str.3, i64 109), ptr %7, align 8, !tbaa !13
  call void (i32, ptr, i32, ptr, ...) @_ZN4absl16raw_log_internal6RawLogENS_11LogSeverityEPKciS3_z(i32 noundef 0, ptr noundef getelementptr (i8, ptr @.str.3, i64 109), i32 noundef 33, ptr noundef @.str.23, i32 noundef 1, i32 noundef 2, i32 noundef 3, i32 noundef 4, i32 noundef 5)
  call void @llvm.lifetime.end.p0(i64 8, ptr %7) #3
  br label %19

19:                                               ; preds = %18
  br label %20

20:                                               ; preds = %19
  call void @llvm.lifetime.start.p0(i64 8, ptr %8) #3
  store ptr getelementptr (i8, ptr @.str.3, i64 109), ptr %8, align 8, !tbaa !13
  call void (i32, ptr, i32, ptr, ...) @_ZN4absl16raw_log_internal6RawLogENS_11LogSeverityEPKciS3_z(i32 noundef 1, ptr noundef getelementptr (i8, ptr @.str.3, i64 109), i32 noundef 34, ptr noundef @.str.24, i32 noundef 1)
  call void @llvm.lifetime.end.p0(i64 8, ptr %8) #3
  br label %21

21:                                               ; preds = %20
  br label %22

22:                                               ; preds = %21
  call void @llvm.lifetime.start.p0(i64 8, ptr %9) #3
  store ptr getelementptr (i8, ptr @.str.3, i64 109), ptr %9, align 8, !tbaa !13
  call void (i32, ptr, i32, ptr, ...) @_ZN4absl16raw_log_internal6RawLogENS_11LogSeverityEPKciS3_z(i32 noundef 2, ptr noundef getelementptr (i8, ptr @.str.3, i64 109), i32 noundef 35, ptr noundef @.str.25, i32 noundef 1)
  call void @llvm.lifetime.end.p0(i64 8, ptr %9) #3
  br label %23

23:                                               ; preds = %22
  ret void
}