; Function Attrs: mustprogress uwtable
define internal void @_ZN12_GLOBAL__N_134RawLoggingCompilationTest_Log_Test8TestBodyEv(ptr nonnull readnone align 8 captures(none) %0) unnamed_addr #4 align 2 {
  tail call void (i32, ptr, i32, ptr, ...) @_ZN4absl16raw_log_internal6RawLogENS_11LogSeverityEPKciS3_z(i32 noundef 0, ptr noundef nonnull getelementptr inbounds nuw (i8, ptr @.str.3, i64 109), i32 noundef 29, ptr noundef nonnull @.str.19, i32 noundef 1)
  tail call void (i32, ptr, i32, ptr, ...) @_ZN4absl16raw_log_internal6RawLogENS_11LogSeverityEPKciS3_z(i32 noundef 0, ptr noundef nonnull getelementptr inbounds nuw (i8, ptr @.str.3, i64 109), i32 noundef 30, ptr noundef nonnull @.str.20, i32 noundef 1, i32 noundef 2)
  tail call void (i32, ptr, i32, ptr, ...) @_ZN4absl16raw_log_internal6RawLogENS_11LogSeverityEPKciS3_z(i32 noundef 0, ptr noundef nonnull getelementptr inbounds nuw (i8, ptr @.str.3, i64 109), i32 noundef 31, ptr noundef nonnull @.str.21, i32 noundef 1, i32 noundef 2, i32 noundef 3)
  tail call void (i32, ptr, i32, ptr, ...) @_ZN4absl16raw_log_internal6RawLogENS_11LogSeverityEPKciS3_z(i32 noundef 0, ptr noundef nonnull getelementptr inbounds nuw (i8, ptr @.str.3, i64 109), i32 noundef 32, ptr noundef nonnull @.str.22, i32 noundef 1, i32 noundef 2, i32 noundef 3, i32 noundef 4)
  tail call void (i32, ptr, i32, ptr, ...) @_ZN4absl16raw_log_internal6RawLogENS_11LogSeverityEPKciS3_z(i32 noundef 0, ptr noundef nonnull getelementptr inbounds nuw (i8, ptr @.str.3, i64 109), i32 noundef 33, ptr noundef nonnull @.str.23, i32 noundef 1, i32 noundef 2, i32 noundef 3, i32 noundef 4, i32 noundef 5)
  tail call void (i32, ptr, i32, ptr, ...) @_ZN4absl16raw_log_internal6RawLogENS_11LogSeverityEPKciS3_z(i32 noundef 1, ptr noundef nonnull getelementptr inbounds nuw (i8, ptr @.str.3, i64 109), i32 noundef 34, ptr noundef nonnull @.str.24, i32 noundef 1)
  tail call void (i32, ptr, i32, ptr, ...) @_ZN4absl16raw_log_internal6RawLogENS_11LogSeverityEPKciS3_z(i32 noundef 2, ptr noundef nonnull getelementptr inbounds nuw (i8, ptr @.str.3, i64 109), i32 noundef 35, ptr noundef nonnull @.str.25, i32 noundef 1)
  ret void
}